target datalayout = "e-m:e-p270:32:32-p271:32:32-p272:64:64-i64:64-i128:128-f80:128-n8:16:32:64-S128"
target triple = "x86_64-pc-linux-gnu"

%struct._lv_menu_t = type { %struct._lv_obj_t, ptr, ptr, ptr, ptr, ptr, ptr, ptr, ptr, ptr, ptr, ptr, ptr, %struct.lv_ll_t, i8, i8, i8 }
%struct._lv_obj_t = type { ptr, ptr, ptr, ptr, ptr, %struct.lv_area_t, i32, i16, i16 }
%struct.lv_area_t = type { i32, i32, i32, i32 }
%struct.lv_ll_t = type { i32, ptr, ptr }
%struct._lv_menu_history_t = type { ptr }

; Function Attrs: nounwind uwtable
define void @lv_menu_clear_history(ptr noundef %0) #0 {
  %2 = alloca ptr, align 8
  %3 = alloca ptr, align 8
  %4 = alloca ptr, align 8
  store ptr %0, ptr %2, align 8, !tbaa !3
  br label %5

5:                                                ; preds = %1
  br label %6

6:                                                ; preds = %5
  call void @llvm.lifetime.start.p0(i64 8, ptr %3) #3
  %7 = load ptr, ptr %2, align 8, !tbaa !3
  store ptr %7, ptr %3, align 8, !tbaa !3
  call void @llvm.lifetime.start.p0(i64 8, ptr %4) #3
  %8 = load ptr, ptr %3, align 8, !tbaa !3
  %9 = getelementptr inbounds nuw %struct._lv_menu_t, ptr %8, i32 0, i32 13
  store ptr %9, ptr %4, align 8, !tbaa !3
  %10 = load ptr, ptr %4, align 8, !tbaa !3
  call void @lv_ll_clear(ptr noundef %10)
  %11 = load ptr, ptr %3, align 8, !tbaa !3
  %12 = getelementptr inbounds nuw %struct._lv_menu_t, ptr %11, i32 0, i32 14
  store i8 0, ptr %12, align 8, !tbaa !7
  call void @llvm.lifetime.end.p0(i64 8, ptr %4) #3
  call void @llvm.lifetime.end.p0(i64 8, ptr %3) #3
  ret void
}

; Function Attrs: nounwind uwtable
define void @lv_menu_set_page(ptr noundef %0, ptr noundef %1) #0 {
  %3 = alloca ptr, align 8
  %4 = alloca ptr, align 8
  %5 = alloca ptr, align 8
  %6 = alloca ptr, align 8
  %7 = alloca ptr, align 8
  store ptr %0, ptr %3, align 8, !tbaa !3
  store ptr %1, ptr %4, align 8, !tbaa !3
  br label %8

8:                                                ; preds = %2
  br label %9

9:                                                ; preds = %8
  call void @llvm.lifetime.start.p0(i64 8, ptr %5) #3
  %10 = load ptr, ptr %3, align 8, !tbaa !3
  store ptr %10, ptr %5, align 8, !tbaa !3
  %11 = load ptr, ptr %5, align 8, !tbaa !3
  %12 = getelementptr inbounds nuw %struct._lv_menu_t, ptr %11, i32 0, i32 3
  %13 = load ptr, ptr %12, align 8, !tbaa !25
  %14 = icmp ne ptr %13, null
  br i1 %14, label %15, label %22

15:                                               ; preds = %9
  %16 = load ptr, ptr %5, align 8, !tbaa !3
  %17 = getelementptr inbounds nuw %struct._lv_menu_t, ptr %16, i32 0, i32 3
  %18 = load ptr, ptr %17, align 8, !tbaa !25
  %19 = load ptr, ptr %5, align 8, !tbaa !3
  %20 = getelementptr inbounds nuw %struct._lv_menu_t, ptr %19, i32 0, i32 1
  %21 = load ptr, ptr %20, align 8, !tbaa !15
  call void @lv_obj_set_parent(ptr noundef %18, ptr noundef %21)
  br label %22

22:                                               ; preds = %15, %9
  %23 = load ptr, ptr %4, align 8, !tbaa !3
  %24 = icmp ne ptr %23, null
  br i1 %24, label %25, label %53

25:                                               ; preds = %22
  call void @llvm.lifetime.start.p0(i64 8, ptr %6) #3
  %26 = load ptr, ptr %5, align 8, !tbaa !3
  %27 = getelementptr inbounds nuw %struct._lv_menu_t, ptr %26, i32 0, i32 13
  store ptr %27, ptr %6, align 8, !tbaa !3
  call void @llvm.lifetime.start.p0(i64 8, ptr %7) #3
  %28 = load ptr, ptr %6, align 8, !tbaa !3
  %29 = call ptr @lv_ll_ins_head(ptr noundef %28)
  store ptr %29, ptr %7, align 8, !tbaa !3
  br label %30

30:                                               ; preds = %25
  %31 = load ptr, ptr %7, align 8, !tbaa !3
  %32 = icmp ne ptr %31, null
  br i1 %32, label %39, label %33

33:                                               ; preds = %30
  br label %34

34:                                               ; preds = %33
  br label %35

35:                                               ; preds = %34
  br label %36

36:                                               ; preds = %35
  br label %37

37:                                               ; preds = %38, %36
  br label %38

38:                                               ; preds = %37
  br label %37

39:                                               ; preds = %30
  br label %40

40:                                               ; preds = %39
  br label %41

41:                                               ; preds = %40
  %42 = load ptr, ptr %4, align 8, !tbaa !3
  %43 = load ptr, ptr %7, align 8, !tbaa !3
  %44 = getelementptr inbounds nuw %struct._lv_menu_history_t, ptr %43, i32 0, i32 0
  store ptr %42, ptr %44, align 8, !tbaa !33
  %45 = load ptr, ptr %5, align 8, !tbaa !3
  %46 = getelementptr inbounds nuw %struct._lv_menu_t, ptr %45, i32 0, i32 14
  %47 = load i8, ptr %46, align 8, !tbaa !7
  %48 = add i8 %47, 1
  store i8 %48, ptr %46, align 8, !tbaa !7
  %49 = load ptr, ptr %4, align 8, !tbaa !3
  %50 = load ptr, ptr %5, align 8, !tbaa !3
  %51 = getelementptr inbounds nuw %struct._lv_menu_t, ptr %50, i32 0, i32 2
  %52 = load ptr, ptr %51, align 8, !tbaa !21
  call void @lv_obj_set_parent(ptr noundef %49, ptr noundef %52)
  call void @llvm.lifetime.end.p0(i64 8, ptr %7) #3
  call void @llvm.lifetime.end.p0(i64 8, ptr %6) #3
  br label %55

53:                                               ; preds = %22
  %54 = load ptr, ptr %3, align 8, !tbaa !3
  call void @lv_menu_clear_history(ptr noundef %54)
  br label %55

55:                                               ; preds = %53, %41
  %56 = load ptr, ptr %4, align 8, !tbaa !3
  %57 = load ptr, ptr %5, align 8, !tbaa !3
  %58 = getelementptr inbounds nuw %struct._lv_menu_t, ptr %57, i32 0, i32 3
  store ptr %56, ptr %58, align 8, !tbaa !25
  %59 = load ptr, ptr %5, align 8, !tbaa !3
  %60 = getelementptr inbounds nuw %struct._lv_menu_t, ptr %59, i32 0, i32 12
  %61 = load ptr, ptr %60, align 8, !tbaa !26
  %62 = icmp ne ptr %61, null
  br i1 %62, label %63, label %77

63:                                               ; preds = %55
  %64 = load ptr, ptr %5, align 8, !tbaa !3
  %65 = getelementptr inbounds nuw %struct._lv_menu_t, ptr %64, i32 0, i32 8
  %66 = load ptr, ptr %65, align 8, !tbaa !20
  %67 = icmp ne ptr %66, null
  br i1 %67, label %68, label %72

68:                                               ; preds = %63
  %69 = load ptr, ptr %5, align 8, !tbaa !3
  %70 = getelementptr inbounds nuw %struct._lv_menu_t, ptr %69, i32 0, i32 12
  %71 = load ptr, ptr %70, align 8, !tbaa !26
  call void @lv_obj_add_state(ptr noundef %71, i16 noundef zeroext 1)
  br label %76

72:                                               ; preds = %63
  %73 = load ptr, ptr %5, align 8, !tbaa !3
  %74 = getelementptr inbounds nuw %struct._lv_menu_t, ptr %73, i32 0, i32 12
  %75 = load ptr, ptr %74, align 8, !tbaa !26
  call void @lv_obj_remove_state(ptr noundef %75, i16 noundef zeroext 1)
  br label %76

76:                                               ; preds = %72, %68
  br label %77

77:                                               ; preds = %76, %55
  %78 = load ptr, ptr %5, align 8, !tbaa !3
  %79 = getelementptr inbounds nuw %struct._lv_menu_t, ptr %78, i32 0, i32 8
  %80 = load ptr, ptr %79, align 8, !tbaa !20
  %81 = icmp ne ptr %80, null
  br i1 %81, label %82, label %132

82:                                               ; preds = %77
  %83 = load ptr, ptr %5, align 8, !tbaa !3
  %84 = getelementptr inbounds nuw %struct._lv_menu_t, ptr %83, i32 0, i32 16
  %85 = load i8, ptr %84, align 2
  %86 = and i8 %85, 1
  %87 = icmp ne i8 %86, 0
  br i1 %87, label %88, label %111

88:                                               ; preds = %82
  %89 = load ptr, ptr %5, align 8, !tbaa !3
  %90 = getelementptr inbounds nuw %struct._lv_menu_t, ptr %89, i32 0, i32 16
  %91 = load i8, ptr %90, align 2
  %92 = lshr i8 %91, 3
  %93 = and i8 %92, 1
  %94 = zext i8 %93 to i32
  %95 = icmp eq i32 %94, 1
  br i1 %95, label %96, label %103

96:                                               ; preds = %88
  %97 = load ptr, ptr %5, align 8, !tbaa !3
  %98 = getelementptr inbounds nuw %struct._lv_menu_t, ptr %97, i32 0, i32 10
  %99 = load ptr, ptr %98, align 8, !tbaa !18
  call void @lv_obj_remove_flag(ptr noundef %99, i32 noundef 1)
  %100 = load ptr, ptr %5, align 8, !tbaa !3
  %101 = getelementptr inbounds nuw %struct._lv_menu_t, ptr %100, i32 0, i32 10
  %102 = load ptr, ptr %101, align 8, !tbaa !18
  call void @lv_obj_add_flag(ptr noundef %102, i32 noundef 2)
  br label %110

103:                                              ; preds = %88
  %104 = load ptr, ptr %5, align 8, !tbaa !3
  %105 = getelementptr inbounds nuw %struct._lv_menu_t, ptr %104, i32 0, i32 10
  %106 = load ptr, ptr %105, align 8, !tbaa !18
  call void @lv_obj_add_flag(ptr noundef %106, i32 noundef 1)
  %107 = load ptr, ptr %5, align 8, !tbaa !3
  %108 = getelementptr inbounds nuw %struct._lv_menu_t, ptr %107, i32 0, i32 10
  %109 = load ptr, ptr %108, align 8, !tbaa !18
  call void @lv_obj_remove_flag(ptr noundef %109, i32 noundef 2)
  br label %110

110:                                              ; preds = %103, %96
  br label %111

111:                                              ; preds = %110, %82
  %112 = load ptr, ptr %5, align 8, !tbaa !3
  %113 = getelementptr inbounds nuw %struct._lv_menu_t, ptr %112, i32 0, i32 14
  %114 = load i8, ptr %113, align 8, !tbaa !7
  %115 = zext i8 %114 to i32
  %116 = icmp sge i32 %115, 2
  br i1 %116, label %117, label %124

117:                                              ; preds = %111
  %118 = load ptr, ptr %5, align 8, !tbaa !3
  %119 = getelementptr inbounds nuw %struct._lv_menu_t, ptr %118, i32 0, i32 5
  %120 = load ptr, ptr %119, align 8, !tbaa !23
  call void @lv_obj_remove_flag(ptr noundef %120, i32 noundef 1)
  %121 = load ptr, ptr %5, align 8, !tbaa !3
  %122 = getelementptr inbounds nuw %struct._lv_menu_t, ptr %121, i32 0, i32 5
  %123 = load ptr, ptr %122, align 8, !tbaa !23
  call void @lv_obj_add_flag(ptr noundef %123, i32 noundef 2)
  br label %131

124:                                              ; preds = %111
  %125 = load ptr, ptr %5, align 8, !tbaa !3
  %126 = getelementptr inbounds nuw %struct._lv_menu_t, ptr %125, i32 0, i32 5
  %127 = load ptr, ptr %126, align 8, !tbaa !23
  call void @lv_obj_add_flag(ptr noundef %127, i32 noundef 1)
  %128 = load ptr, ptr %5, align 8, !tbaa !3
  %129 = getelementptr inbounds nuw %struct._lv_menu_t, ptr %128, i32 0, i32 5
  %130 = load ptr, ptr %129, align 8, !tbaa !23
  call void @lv_obj_remove_flag(ptr noundef %130, i32 noundef 2)
  br label %131

131:                                              ; preds = %124, %117
  br label %161

132:                                              ; preds = %77
  %133 = load ptr, ptr %5, align 8, !tbaa !3
  %134 = getelementptr inbounds nuw %struct._lv_menu_t, ptr %133, i32 0, i32 14
  %135 = load i8, ptr %134, align 8, !tbaa !7
  %136 = zext i8 %135 to i32
  %137 = icmp sge i32 %136, 2
  br i1 %137, label %146, label %138

138:                                              ; preds = %132
  %139 = load ptr, ptr %5, align 8, !tbaa !3
  %140 = getelementptr inbounds nuw %struct._lv_menu_t, ptr %139, i32 0, i32 16
  %141 = load i8, ptr %140, align 2
  %142 = lshr i8 %141, 3
  %143 = and i8 %142, 1
  %144 = zext i8 %143 to i32
  %145 = icmp eq i32 %144, 1
  br i1 %145, label %146, label %153

146:                                              ; preds = %138, %132
  %147 = load ptr, ptr %5, align 8, !tbaa !3
  %148 = getelementptr inbounds nuw %struct._lv_menu_t, ptr %147, i32 0, i32 5
  %149 = load ptr, ptr %148, align 8, !tbaa !23
  call void @lv_obj_remove_flag(ptr noundef %149, i32 noundef 1)
  %150 = load ptr, ptr %5, align 8, !tbaa !3
  %151 = getelementptr inbounds nuw %struct._lv_menu_t, ptr %150, i32 0, i32 5
  %152 = load ptr, ptr %151, align 8, !tbaa !23
  call void @lv_obj_add_flag(ptr noundef %152, i32 noundef 2)
  br label %160

153:                                              ; preds = %138
  %154 = load ptr, ptr %5, align 8, !tbaa !3
  %155 = getelementptr inbounds nuw %struct._lv_menu_t, ptr %154, i32 0, i32 5
  %156 = load ptr, ptr %155, align 8, !tbaa !23
  call void @lv_obj_add_flag(ptr noundef %156, i32 noundef 1)
  %157 = load ptr, ptr %5, align 8, !tbaa !3
  %158 = getelementptr inbounds nuw %struct._lv_menu_t, ptr %157, i32 0, i32 5
  %159 = load ptr, ptr %158, align 8, !tbaa !23
  call void @lv_obj_remove_flag(ptr noundef %159, i32 noundef 2)
  br label %160

160:                                              ; preds = %153, %146
  br label %161

161:                                              ; preds = %160, %131
  %162 = load ptr, ptr %5, align 8, !tbaa !3
  %163 = call i32 @lv_obj_send_event(ptr noundef %162, i32 noundef 35, ptr noundef null)
  %164 = load ptr, ptr %3, align 8, !tbaa !3
  call void @lv_menu_refr_main_header_mode(ptr noundef %164)
  call void @llvm.lifetime.end.p0(i64 8, ptr %5) #3
  ret void
}