; Function Attrs: nounwind uwtable
define void @lv_menu_set_page(ptr noundef %0, ptr noundef %1) local_unnamed_addr #0 {
  %3 = getelementptr inbounds nuw i8, ptr %0, i64 80
  %4 = load ptr, ptr %3, align 8, !tbaa !19
  %.not = icmp eq ptr %4, null
  br i1 %.not, label %8, label %5

5:                                                ; preds = %2
  %6 = getelementptr inbounds nuw i8, ptr %0, i64 64
  %7 = load ptr, ptr %6, align 8, !tbaa !14
  tail call void @lv_obj_set_parent(ptr noundef nonnull %4, ptr noundef %7) #4
  br label %8

8:                                                ; preds = %5, %2
  %.not43 = icmp eq ptr %1, null
  %9 = getelementptr inbounds nuw i8, ptr %0, i64 160
  br i1 %.not43, label %18, label %10

10:                                               ; preds = %8
  %11 = tail call ptr @lv_ll_ins_head(ptr noundef nonnull %9) #4
  %.not44 = icmp eq ptr %11, null
  br i1 %.not44, label %.preheader, label %12

.preheader:                                       ; preds = %10, %.preheader
  br label %.preheader

12:                                               ; preds = %10
  store ptr %1, ptr %11, align 8, !tbaa !27
  %13 = getelementptr inbounds nuw i8, ptr %0, i64 184
  %14 = load i8, ptr %13, align 8, !tbaa !3
  %15 = add i8 %14, 1
  store i8 %15, ptr %13, align 8, !tbaa !3
  %16 = getelementptr inbounds nuw i8, ptr %0, i64 72
  %17 = load ptr, ptr %16, align 8, !tbaa !15
  tail call void @lv_obj_set_parent(ptr noundef nonnull %1, ptr noundef %17) #4
  br label %20

18:                                               ; preds = %8
  tail call void @lv_ll_clear(ptr noundef nonnull %9) #4
  %19 = getelementptr inbounds nuw i8, ptr %0, i64 184
  store i8 0, ptr %19, align 8, !tbaa !3
  br label %20

20:                                               ; preds = %18, %12
  store ptr %1, ptr %3, align 8, !tbaa !19
  %21 = getelementptr inbounds nuw i8, ptr %0, i64 152
  %22 = load ptr, ptr %21, align 8, !tbaa !20
  %.not45 = icmp eq ptr %22, null
  br i1 %.not45, label %28, label %23

23:                                               ; preds = %20
  %24 = getelementptr inbounds nuw i8, ptr %0, i64 120
  %25 = load ptr, ptr %24, align 8, !tbaa !29
  %.not46 = icmp eq ptr %25, null
  br i1 %.not46, label %27, label %26

26:                                               ; preds = %23
  tail call void @lv_obj_add_state(ptr noundef nonnull %22, i16 noundef zeroext 1) #4
  br label %28

27:                                               ; preds = %23
  tail call void @lv_obj_remove_state(ptr noundef nonnull %22, i16 noundef zeroext 1) #4
  br label %28

28:                                               ; preds = %26, %27, %20
  %29 = getelementptr inbounds nuw i8, ptr %0, i64 120
  %30 = load ptr, ptr %29, align 8, !tbaa !29
  %.not47 = icmp eq ptr %30, null
  br i1 %.not47, label %53, label %31

31:                                               ; preds = %28
  %32 = getelementptr inbounds nuw i8, ptr %0, i64 186
  %33 = load i8, ptr %32, align 2
  %34 = and i8 %33, 1
  %.not49 = icmp eq i8 %34, 0
  br i1 %.not49, label %43, label %35

35:                                               ; preds = %31
  %36 = and i8 %33, 8
  %.not50 = icmp eq i8 %36, 0
  %37 = getelementptr inbounds nuw i8, ptr %0, i64 136
  %38 = load ptr, ptr %37, align 8, !tbaa !30
  br i1 %.not50, label %41, label %39

39:                                               ; preds = %35
  tail call void @lv_obj_remove_flag(ptr noundef %38, i32 noundef 1) #4
  %40 = load ptr, ptr %37, align 8, !tbaa !30
  tail call void @lv_obj_add_flag(ptr noundef %40, i32 noundef 2) #4
  br label %43

41:                                               ; preds = %35
  tail call void @lv_obj_add_flag(ptr noundef %38, i32 noundef 1) #4
  %42 = load ptr, ptr %37, align 8, !tbaa !30
  tail call void @lv_obj_remove_flag(ptr noundef %42, i32 noundef 2) #4
  br label %43

43:                                               ; preds = %39, %41, %31
  %44 = getelementptr inbounds nuw i8, ptr %0, i64 184
  %45 = load i8, ptr %44, align 8, !tbaa !3
  %46 = icmp ugt i8 %45, 1
  %47 = getelementptr inbounds nuw i8, ptr %0, i64 96
  %48 = load ptr, ptr %47, align 8, !tbaa !17
  br i1 %46, label %49, label %51

49:                                               ; preds = %43
  tail call void @lv_obj_remove_flag(ptr noundef %48, i32 noundef 1) #4
  %50 = load ptr, ptr %47, align 8, !tbaa !17
  tail call void @lv_obj_add_flag(ptr noundef %50, i32 noundef 2) #4
  br label %69

51:                                               ; preds = %43
  tail call void @lv_obj_add_flag(ptr noundef %48, i32 noundef 1) #4
  %52 = load ptr, ptr %47, align 8, !tbaa !17
  tail call void @lv_obj_remove_flag(ptr noundef %52, i32 noundef 2) #4
  br label %69

53:                                               ; preds = %28
  %54 = getelementptr inbounds nuw i8, ptr %0, i64 184
  %55 = load i8, ptr %54, align 8, !tbaa !3
  %56 = icmp ugt i8 %55, 1
  br i1 %56, label %61, label %57

57:                                               ; preds = %53
  %58 = getelementptr inbounds nuw i8, ptr %0, i64 186
  %59 = load i8, ptr %58, align 2
  %60 = and i8 %59, 8
  %.not48 = icmp eq i8 %60, 0
  br i1 %.not48, label %65, label %61

61:                                               ; preds = %57, %53
  %62 = getelementptr inbounds nuw i8, ptr %0, i64 96
  %63 = load ptr, ptr %62, align 8, !tbaa !17
  tail call void @lv_obj_remove_flag(ptr noundef %63, i32 noundef 1) #4
  %64 = load ptr, ptr %62, align 8, !tbaa !17
  tail call void @lv_obj_add_flag(ptr noundef %64, i32 noundef 2) #4
  br label %69

65:                                               ; preds = %57
  %66 = getelementptr inbounds nuw i8, ptr %0, i64 96
  %67 = load ptr, ptr %66, align 8, !tbaa !17
  tail call void @lv_obj_add_flag(ptr noundef %67, i32 noundef 1) #4
  %68 = load ptr, ptr %66, align 8, !tbaa !17
  tail call void @lv_obj_remove_flag(ptr noundef %68, i32 noundef 2) #4
  br label %69

69:                                               ; preds = %61, %65, %49, %51
  %70 = tail call i32 @lv_obj_send_event(ptr noundef nonnull %0, i32 noundef 35, ptr noundef null) #4
  tail call fastcc void @lv_menu_refr_main_header_mode(ptr noundef nonnull %0)
  ret void
}